; Function Attrs: mustprogress uwtable
define hidden void @_ZN5ceres8internal10ThreadPoolC2Ei(ptr noundef nonnull align 8 dereferenceable(240) initializes((0, 40)) %0, i32 noundef %1) unnamed_addr #3 align 2 personality ptr @__gxx_personality_v0 {
  tail call void @llvm.memset.p0.i64(ptr noundef nonnull align 8 dereferenceable(169) %0, i8 0, i64 40, i1 false)
  %3 = getelementptr inbounds nuw i8, ptr %0, i64 40
  tail call void @_ZNSt18condition_variableC1Ev(ptr noundef nonnull align 8 dereferenceable(48) %3) #18
  %4 = getelementptr inbounds nuw i8, ptr %0, i64 88
  tail call void @llvm.memset.p0.i64(ptr noundef nonnull align 8 dereferenceable(80) %4, i8 0, i64 80, i1 false)
  invoke void @_ZNSt11_Deque_baseISt8functionIFvvEESaIS2_EE17_M_initialize_mapEm(ptr noundef nonnull align 8 dereferenceable(80) %4, i64 noundef 0)
          to label %_ZN5ceres8internal15ConcurrentQueueISt8functionIFvvEEEC2Ev.exit unwind label %5

common.resume:                                    ; preds = %10, %5
  %common.resume.op = phi { ptr, i32 } [ %6, %5 ], [ %11, %10 ]
  tail call void @_ZNSt18condition_variableD1Ev(ptr noundef nonnull align 8 dereferenceable(48) %3) #18
  resume { ptr, i32 } %common.resume.op

5:                                                ; preds = %2
  %6 = landingpad { ptr, i32 }
          cleanup
  br label %common.resume

_ZN5ceres8internal15ConcurrentQueueISt8functionIFvvEEEC2Ev.exit: ; preds = %2
  %7 = getelementptr inbounds nuw i8, ptr %0, i64 168
  store i8 1, ptr %7, align 8, !tbaa !3
  %8 = getelementptr inbounds nuw i8, ptr %0, i64 176
  tail call void @llvm.memset.p0.i64(ptr noundef nonnull align 8 dereferenceable(64) %8, i8 0, i64 64, i1 false)
  invoke void @_ZN5ceres8internal10ThreadPool6ResizeEi(ptr noundef nonnull align 8 dereferenceable(240) %0, i32 noundef %1)
          to label %9 unwind label %10

9:                                                ; preds = %_ZN5ceres8internal15ConcurrentQueueISt8functionIFvvEEEC2Ev.exit
  ret void

10:                                               ; preds = %_ZN5ceres8internal15ConcurrentQueueISt8functionIFvvEEEC2Ev.exit
  %11 = landingpad { ptr, i32 }
          cleanup
  tail call void @_ZNSt6vectorISt6threadSaIS0_EED2Ev(ptr noundef nonnull align 8 dereferenceable(24) %8) #18
  tail call void @_ZNSt5dequeISt8functionIFvvEESaIS2_EED2Ev(ptr noundef nonnull align 8 dereferenceable(80) %4) #18
  br label %common.resume
}